target datalayout = "e-m:e-p270:32:32-p271:32:32-p272:64:64-i64:64-i128:128-f80:128-n8:16:32:64-S128"
target triple = "x86_64-pc-linux-gnu"

%struct.Curl_easy = type { i32, i64, i64, ptr, %struct.Curl_llist_node, %struct.Curl_llist_node, i32, i32, %struct.Curl_message, %struct.easy_pollset, %struct.Names, ptr, ptr, ptr, %struct.SingleRequest, %struct.UserDefined, ptr, ptr, %struct.Progress, %struct.UrlState, ptr, %struct.PureInfo, %struct.curl_tlssessioninfo }
%struct.Curl_llist_node = type { ptr, ptr, ptr, ptr }
%struct.Curl_message = type { %struct.Curl_llist_node, %struct.CURLMsg }
%struct.CURLMsg = type { i32, ptr, %union.anon }
%union.anon = type { ptr }
%struct.easy_pollset = type { [5 x i32], i32, [5 x i8] }
%struct.Names = type { ptr, i32 }
%struct.SingleRequest = type <{ i64, i64, i64, i64, %struct.curltime, i32, i32, i32, i32, i64, i32, i32, i32, i32, ptr, ptr, %struct.bufq, i64, i64, ptr, ptr, %union.anon.0, ptr, i8, i32, [3 x i8] }>
%struct.curltime = type { i64, i32 }
%struct.bufq = type { ptr, ptr, ptr, ptr, i64, i64, i64, i32 }
%union.anon.0 = type { ptr }
%struct.UserDefined = type <{ ptr, ptr, ptr, ptr, ptr, ptr, i16, [6 x i8], i64, i64, i64, ptr, ptr, i64, i16, i16, [4 x i8], ptr, ptr, ptr, ptr, ptr, ptr, ptr, ptr, ptr, ptr, ptr, ptr, ptr, ptr, ptr, ptr, ptr, ptr, ptr, ptr, ptr, ptr, ptr, i32, i32, i32, i32, i32, [4 x i8], i64, i64, i64, i64, i64, i64, i64, i64, ptr, ptr, %struct.curl_mimepart, ptr, ptr, i64, i8, i8, i8, [5 x i8], %struct.ssl_config_data, %struct.ssl_config_data, ptr, i16, i8, i8, [4 x i8], %struct.ssl_general_config, i32, i32, i32, [4 x i8], ptr, ptr, i8, [7 x i8], i64, i8, i8, i8, i8, i32, ptr, ptr, ptr, i8, i8, [2 x i8], i32, [63 x ptr], [8 x ptr], i32, i32, i32, [4 x i8], ptr, ptr, ptr, ptr, ptr, i8, [3 x i8], i32, i32, i32, i64, %struct.Curl_data_priority, ptr, ptr, i64, ptr, i64, ptr, ptr, ptr, i8, [3 x i8], i32, i8, i8, i64, [6 x i8] }>
%struct.curl_mimepart = type { ptr, ptr, i32, i32, ptr, ptr, ptr, ptr, ptr, ptr, ptr, ptr, ptr, ptr, ptr, i64, %struct.mime_state, ptr, %struct.mime_encoder_state, i64 }
%struct.mime_state = type { i32, ptr, i64 }
%struct.mime_encoder_state = type { i64, i64, i64, [256 x i8] }
%struct.ssl_config_data = type { %struct.ssl_primary_config, i64, ptr, ptr, ptr, ptr, ptr, ptr, ptr, i16 }
%struct.ssl_primary_config = type { ptr, ptr, ptr, ptr, ptr, ptr, ptr, ptr, ptr, ptr, ptr, ptr, i8, i32, i8, i8 }
%struct.ssl_general_config = type { i64, i32 }
%struct.Curl_data_priority = type { ptr, ptr, i32, i8 }
%struct.Progress = type { i64, %struct.pgrs_dir, %struct.pgrs_dir, i64, i64, i32, i32, i64, i64, i64, i64, i64, i64, i64, i64, i64, %struct.curltime, %struct.curltime, %struct.curltime, %struct.curltime, [6 x i64], [6 x %struct.curltime], i32, i8 }
%struct.pgrs_dir = type { i64, i64, i64, %struct.pgrs_measure }
%struct.pgrs_measure = type { %struct.curltime, i64 }
%struct.UrlState = type { %struct.curltime, i64, i64, %struct.dynbuf, ptr, i64, ptr, i32, i32, i32, ptr, i64, i32, i64, i32, ptr, %struct.digestdata, %struct.digestdata, %struct.auth, %struct.auth, %struct.Curl_async, ptr, %struct.curltime, %struct.Curl_tree, %struct.Curl_llist, [15 x %struct.time_node], ptr, ptr, i64, i64, %struct.Curl_data_priority, ptr, ptr, ptr, %struct.urlpieces, ptr, ptr, ptr, ptr, ptr, i64, %struct.dynbuf, %struct.Curl_llist, [2 x %struct.curl_header], ptr, i32, ptr, ptr, %struct.store_netrc, %struct.dynamically_allocated_data, i8, i8, i8, i8, i32 }
%struct.digestdata = type { ptr, ptr, ptr, ptr, ptr, ptr, i32, i8, i8 }
%struct.auth = type { i64, i64, i64, i8 }
%struct.Curl_async = type { ptr, ptr, ptr, ptr, i32, i32, i8 }
%struct.Curl_tree = type { ptr, ptr, ptr, ptr, %struct.curltime, ptr }
%struct.time_node = type { %struct.Curl_llist_node, %struct.curltime, i32 }
%struct.urlpieces = type { ptr, ptr, ptr, ptr, ptr, ptr, ptr, ptr }
%struct.dynbuf = type { ptr, i64, i64, i64 }
%struct.Curl_llist = type { ptr, ptr, ptr, i64 }
%struct.curl_header = type { ptr, ptr, i64, i64, i32, ptr }
%struct.store_netrc = type { %struct.dynbuf, ptr, i8 }
%struct.dynamically_allocated_data = type { ptr, ptr, ptr, ptr, ptr, ptr, ptr, ptr, ptr, ptr, ptr, ptr, ptr }
%struct.PureInfo = type { i32, i32, i32, i64, i64, i64, i64, i64, ptr, ptr, i64, i32, %struct.ip_quadruple, i32, ptr, i32, %struct.curl_certinfo, i32, i8 }
%struct.ip_quadruple = type { [46 x i8], [46 x i8], i32, i32 }
%struct.curl_certinfo = type { i32, ptr }
%struct.curl_tlssessioninfo = type { i32, ptr }
%struct.curl_slist = type { ptr, ptr }
%struct.curl_trc_feat = type { ptr, i32 }

@.str = private unnamed_addr constant [35 x i8] c"ignoring failed cookie_init for %s\00", align 1

; Function Attrs: nounwind uwtable
define dso_local void @Curl_cookie_loadfiles(ptr noundef %0) #0 {
  %2 = alloca ptr, align 8
  %3 = alloca ptr, align 8
  %4 = alloca ptr, align 8
  store ptr %0, ptr %2, align 8, !tbaa !4
  call void @llvm.lifetime.start.p0(i64 8, ptr %3) #6
  %5 = load ptr, ptr %2, align 8, !tbaa !4
  %6 = getelementptr inbounds nuw %struct.Curl_easy, ptr %5, i32 0, i32 19
  %7 = getelementptr inbounds nuw %struct.UrlState, ptr %6, i32 0, i32 46
  %8 = load ptr, ptr %7, align 8, !tbaa !9
  store ptr %8, ptr %3, align 8, !tbaa !78
  %9 = load ptr, ptr %3, align 8, !tbaa !78
  %10 = icmp ne ptr %9, null
  br i1 %10, label %11, label %82

11:                                               ; preds = %1
  %12 = load ptr, ptr %2, align 8, !tbaa !4
  %13 = call i32 @Curl_share_lock(ptr noundef %12, i32 noundef 2, i32 noundef 2)
  br label %14

14:                                               ; preds = %75, %11
  %15 = load ptr, ptr %3, align 8, !tbaa !78
  %16 = icmp ne ptr %15, null
  br i1 %16, label %17, label %79

17:                                               ; preds = %14
  call void @llvm.lifetime.start.p0(i64 8, ptr %4) #6
  %18 = load ptr, ptr %2, align 8, !tbaa !4
  %19 = load ptr, ptr %3, align 8, !tbaa !78
  %20 = getelementptr inbounds nuw %struct.curl_slist, ptr %19, i32 0, i32 0
  %21 = load ptr, ptr %20, align 8, !tbaa !79
  %22 = load ptr, ptr %2, align 8, !tbaa !4
  %23 = getelementptr inbounds nuw %struct.Curl_easy, ptr %22, i32 0, i32 16
  %24 = load ptr, ptr %23, align 8, !tbaa !81
  %25 = load ptr, ptr %2, align 8, !tbaa !4
  %26 = getelementptr inbounds nuw %struct.Curl_easy, ptr %25, i32 0, i32 15
  %27 = getelementptr inbounds nuw %struct.UserDefined, ptr %26, i32 0, i32 124
  %28 = load i64, ptr %27, align 2
  %29 = lshr i64 %28, 3
  %30 = and i64 %29, 1
  %31 = trunc i64 %30 to i32
  %32 = icmp ne i32 %31, 0
  %33 = call ptr @Curl_cookie_init(ptr noundef %18, ptr noundef %21, ptr noundef %24, i1 noundef zeroext %32)
  store ptr %33, ptr %4, align 8, !tbaa !82
  %34 = load ptr, ptr %4, align 8, !tbaa !82
  %35 = icmp ne ptr %34, null
  br i1 %35, label %71, label %36

36:                                               ; preds = %17
  br label %37

37:                                               ; preds = %36
  %38 = load ptr, ptr %2, align 8, !tbaa !4
  %39 = icmp ne ptr %38, null
  br i1 %39, label %40, label %68

40:                                               ; preds = %37
  %41 = load ptr, ptr %2, align 8, !tbaa !4
  %42 = getelementptr inbounds nuw %struct.Curl_easy, ptr %41, i32 0, i32 15
  %43 = getelementptr inbounds nuw %struct.UserDefined, ptr %42, i32 0, i32 124
  %44 = load i64, ptr %43, align 2
  %45 = lshr i64 %44, 27
  %46 = and i64 %45, 1
  %47 = trunc i64 %46 to i32
  %48 = icmp ne i32 %47, 0
  br i1 %48, label %49, label %68

49:                                               ; preds = %40
  %50 = load ptr, ptr %2, align 8, !tbaa !4
  %51 = getelementptr inbounds nuw %struct.Curl_easy, ptr %50, i32 0, i32 19
  %52 = getelementptr inbounds nuw %struct.UrlState, ptr %51, i32 0, i32 47
  %53 = load ptr, ptr %52, align 8, !tbaa !83
  %54 = icmp ne ptr %53, null
  br i1 %54, label %55, label %63

55:                                               ; preds = %49
  %56 = load ptr, ptr %2, align 8, !tbaa !4
  %57 = getelementptr inbounds nuw %struct.Curl_easy, ptr %56, i32 0, i32 19
  %58 = getelementptr inbounds nuw %struct.UrlState, ptr %57, i32 0, i32 47
  %59 = load ptr, ptr %58, align 8, !tbaa !83
  %60 = getelementptr inbounds nuw %struct.curl_trc_feat, ptr %59, i32 0, i32 1
  %61 = load i32, ptr %60, align 8, !tbaa !84
  %62 = icmp sge i32 %61, 1
  br i1 %62, label %63, label %68

63:                                               ; preds = %55, %49
  %64 = load ptr, ptr %2, align 8, !tbaa !4
  %65 = load ptr, ptr %3, align 8, !tbaa !78
  %66 = getelementptr inbounds nuw %struct.curl_slist, ptr %65, i32 0, i32 0
  %67 = load ptr, ptr %66, align 8, !tbaa !79
  call void (ptr, ptr, ...) @Curl_infof(ptr noundef %64, ptr noundef @.str, ptr noundef %67)
  br label %68

68:                                               ; preds = %63, %55, %40, %37
  br label %69

69:                                               ; preds = %68
  br label %70

70:                                               ; preds = %69
  br label %75

71:                                               ; preds = %17
  %72 = load ptr, ptr %4, align 8, !tbaa !82
  %73 = load ptr, ptr %2, align 8, !tbaa !4
  %74 = getelementptr inbounds nuw %struct.Curl_easy, ptr %73, i32 0, i32 16
  store ptr %72, ptr %74, align 8, !tbaa !81
  br label %75

75:                                               ; preds = %71, %70
  %76 = load ptr, ptr %3, align 8, !tbaa !78
  %77 = getelementptr inbounds nuw %struct.curl_slist, ptr %76, i32 0, i32 1
  %78 = load ptr, ptr %77, align 8, !tbaa !86
  store ptr %78, ptr %3, align 8, !tbaa !78
  call void @llvm.lifetime.end.p0(i64 8, ptr %4) #6
  br label %14, !llvm.loop !87

79:                                               ; preds = %14
  %80 = load ptr, ptr %2, align 8, !tbaa !4
  %81 = call i32 @Curl_share_unlock(ptr noundef %80, i32 noundef 2)
  br label %82

82:                                               ; preds = %79, %1
  call void @llvm.lifetime.end.p0(i64 8, ptr %3) #6
  ret void
}