; Function Attrs: nounwind uwtable
define dso_local void @Curl_cookie_loadfiles(ptr noundef %0) local_unnamed_addr #0 {
  %2 = getelementptr inbounds nuw i8, ptr %0, i64 4704
  %3 = load ptr, ptr %2, align 8, !tbaa !4
  %.not = icmp eq ptr %3, null
  br i1 %.not, label %33, label %4

4:                                                ; preds = %1
  %5 = tail call i32 @Curl_share_lock(ptr noundef nonnull %0, i32 noundef 2, i32 noundef 2) #13
  %6 = getelementptr inbounds nuw i8, ptr %0, i64 2576
  %7 = getelementptr inbounds nuw i8, ptr %0, i64 2562
  %8 = getelementptr inbounds nuw i8, ptr %0, i64 4712
  br label %9

9:                                                ; preds = %4, %28
  %.028 = phi ptr [ %3, %4 ], [ %30, %28 ]
  %10 = load ptr, ptr %.028, align 8, !tbaa !77
  %11 = load ptr, ptr %6, align 8, !tbaa !79
  %12 = load i64, ptr %7, align 2
  %13 = and i64 %12, 8
  %14 = icmp ne i64 %13, 0
  %15 = tail call ptr @Curl_cookie_init(ptr noundef nonnull %0, ptr noundef %10, ptr noundef %11, i1 noundef zeroext %14)
  %.not24 = icmp eq ptr %15, null
  br i1 %.not24, label %16, label %27

16:                                               ; preds = %9
  %17 = load i64, ptr %7, align 2
  %18 = and i64 %17, 134217728
  %.not26 = icmp eq i64 %18, 0
  br i1 %.not26, label %28, label %19

19:                                               ; preds = %16
  %20 = load ptr, ptr %8, align 8, !tbaa !80
  %.not27 = icmp eq ptr %20, null
  br i1 %.not27, label %25, label %21

21:                                               ; preds = %19
  %22 = getelementptr inbounds nuw i8, ptr %20, i64 8
  %23 = load i32, ptr %22, align 8, !tbaa !81
  %24 = icmp sgt i32 %23, 0
  br i1 %24, label %25, label %28

25:                                               ; preds = %21, %19
  %26 = load ptr, ptr %.028, align 8, !tbaa !77
  tail call void (ptr, ptr, ...) @Curl_infof(ptr noundef nonnull %0, ptr noundef nonnull @.str, ptr noundef %26) #13
  br label %28

27:                                               ; preds = %9
  store ptr %15, ptr %6, align 8, !tbaa !79
  br label %28

28:                                               ; preds = %16, %21, %25, %27
  %29 = getelementptr inbounds nuw i8, ptr %.028, i64 8
  %30 = load ptr, ptr %29, align 8, !tbaa !83
  %.not23 = icmp eq ptr %30, null
  br i1 %.not23, label %31, label %9, !llvm.loop !84

31:                                               ; preds = %28
  %32 = tail call i32 @Curl_share_unlock(ptr noundef nonnull %0, i32 noundef 2) #13
  br label %33

33:                                               ; preds = %31, %1
  ret void
}